; Function Attrs: uwtable
define noundef i32 @_ZThn8_N6icu_7516FunctionReplacer7replaceERNS_11ReplaceableEiiRi(ptr nocapture noundef readonly %this, ptr noundef nonnull align 8 dereferenceable(8) %text, i32 noundef %start, i32 noundef %limit, ptr noundef nonnull align 4 dereferenceable(4) %cursor) unnamed_addr #6 align 2 {
entry:
  %replacer.i = getelementptr inbounds i8, ptr %this, i64 16
  %0 = load ptr, ptr %replacer.i, align 8
  %vtable.i = load ptr, ptr %0, align 8
  %vfn.i = getelementptr inbounds i8, ptr %vtable.i, i64 40
  %1 = load ptr, ptr %vfn.i, align 8
  %call.i = tail call noundef ptr %1(ptr noundef nonnull align 8 dereferenceable(8) %0)
  %vtable2.i = load ptr, ptr %call.i, align 8
  %vfn3.i = getelementptr inbounds i8, ptr %vtable2.i, i64 16
  %2 = load ptr, ptr %vfn3.i, align 8
  %call4.i = tail call noundef i32 %2(ptr noundef nonnull align 8 dereferenceable(8) %call.i, ptr noundef nonnull align 8 dereferenceable(8) %text, i32 noundef %start, i32 noundef %limit, ptr noundef nonnull align 4 dereferenceable(4) %cursor)
  %add.i = add nsw i32 %call4.i, %start
  %translit.i = getelementptr inbounds i8, ptr %this, i64 8
  %3 = load ptr, ptr %translit.i, align 8
  %vtable5.i = load ptr, ptr %3, align 8
  %vfn6.i = getelementptr inbounds i8, ptr %vtable5.i, i64 32
  %4 = load ptr, ptr %vfn6.i, align 8
  %call7.i = tail call noundef i32 %4(ptr noundef nonnull align 8 dereferenceable(84) %3, ptr noundef nonnull align 8 dereferenceable(8) %text, i32 noundef %start, i32 noundef %add.i)
  %sub.i = sub nsw i32 %call7.i, %start
  ret i32 %sub.i
}